; Function Attrs: mustprogress uwtable
define internal fastcc void @_ZZN9grpc_core12_GLOBAL__N_114GrpcKeyBuilder9ExtraKeys12JsonPostLoadERKNS_12experimental4JsonERKNS_8JsonArgsEPNS_16ValidationErrorsEENKUlRKNSt7__cxx1112basic_stringIcSt11char_traitsIcESaIcEEEPSt8optionalISH_EE_clESJ_SM_(ptr nocapture noundef nonnull readonly align 8 dereferenceable(8) %this, ptr noundef nonnull align 8 dereferenceable(32) %field_name, ptr noundef %struct_field) unnamed_addr #3 align 2 personality ptr @__gxx_personality_v0 {
entry:
  %field = alloca %"class.grpc_core::ValidationErrors::ScopedField", align 8
  %ref.tmp = alloca %"class.std::__cxx11::basic_string", align 8
  %ref.tmp2 = alloca %"class.absl::lts_20230802::AlphaNum", align 8
  %ref.tmp3 = alloca %"class.absl::lts_20230802::AlphaNum", align 8
  %0 = load ptr, ptr %this, align 8
  %1 = load ptr, ptr %0, align 8
  store i64 1, ptr %ref.tmp2, align 8
  %2 = getelementptr inbounds i8, ptr %ref.tmp2, i64 8
  store ptr @.str.35, ptr %2, align 8
  %call.i = tail call { i64, ptr } @_ZNKSt7__cxx1112basic_stringIcSt11char_traitsIcESaIcEEcvSt17basic_string_viewIcS2_EEv(ptr noundef nonnull align 8 dereferenceable(32) %field_name) #31
  %3 = extractvalue { i64, ptr } %call.i, 0
  store i64 %3, ptr %ref.tmp3, align 8
  %4 = getelementptr inbounds i8, ptr %ref.tmp3, i64 8
  %5 = extractvalue { i64, ptr } %call.i, 1
  store ptr %5, ptr %4, align 8
  call void @_ZN4absl12lts_202308026StrCatB5cxx11ERKNS0_8AlphaNumES3_(ptr nonnull sret(%"class.std::__cxx11::basic_string") align 8 %ref.tmp, ptr noundef nonnull align 8 dereferenceable(48) %ref.tmp2, ptr noundef nonnull align 8 dereferenceable(48) %ref.tmp3)
  %call = call { i64, ptr } @_ZNKSt7__cxx1112basic_stringIcSt11char_traitsIcESaIcEEcvSt17basic_string_viewIcS2_EEv(ptr noundef nonnull align 8 dereferenceable(32) %ref.tmp) #31
  %6 = extractvalue { i64, ptr } %call, 0
  %7 = extractvalue { i64, ptr } %call, 1
  store ptr %1, ptr %field, align 8
  invoke void @_ZN9grpc_core16ValidationErrors9PushFieldESt17basic_string_viewIcSt11char_traitsIcEE(ptr noundef nonnull align 8 dereferenceable(72) %1, i64 %6, ptr %7)
          to label %invoke.cont unwind label %lpad

invoke.cont:                                      ; preds = %entry
  call void @_ZNSt7__cxx1112basic_stringIcSt11char_traitsIcESaIcEED1Ev(ptr noundef nonnull align 8 dereferenceable(32) %ref.tmp) #31
  %_M_engaged.i.i = getelementptr inbounds i8, ptr %struct_field, i64 32
  %8 = load i8, ptr %_M_engaged.i.i, align 8
  %9 = and i8 %8, 1
  %tobool.i.i.not = icmp eq i8 %9, 0
  br i1 %tobool.i.i.not, label %if.end, label %land.lhs.true

land.lhs.true:                                    ; preds = %invoke.cont
  %call6 = call noundef zeroext i1 @_ZNKSt7__cxx1112basic_stringIcSt11char_traitsIcESaIcEE5emptyEv(ptr noundef nonnull align 8 dereferenceable(32) %struct_field) #31
  br i1 %call6, label %if.then, label %if.end

if.then:                                          ; preds = %land.lhs.true
  %10 = load ptr, ptr %this, align 8
  %11 = load ptr, ptr %10, align 8
  invoke void @_ZN9grpc_core16ValidationErrors8AddErrorESt17basic_string_viewIcSt11char_traitsIcEE(ptr noundef nonnull align 8 dereferenceable(72) %11, i64 24, ptr nonnull @.str.36)
          to label %if.end unwind label %lpad8

lpad:                                             ; preds = %entry
  %12 = landingpad { ptr, i32 }
          cleanup
  call void @_ZNSt7__cxx1112basic_stringIcSt11char_traitsIcESaIcEED1Ev(ptr noundef nonnull align 8 dereferenceable(32) %ref.tmp) #31
  br label %eh.resume

lpad8:                                            ; preds = %if.then
  %13 = landingpad { ptr, i32 }
          cleanup
  call void @_ZN9grpc_core16ValidationErrors11ScopedFieldD2Ev(ptr noundef nonnull align 8 dereferenceable(8) %field) #31
  br label %eh.resume

if.end:                                           ; preds = %if.then, %land.lhs.true, %invoke.cont
  %14 = load ptr, ptr %field, align 8
  %cmp.not.i = icmp eq ptr %14, null
  br i1 %cmp.not.i, label %_ZN9grpc_core16ValidationErrors11ScopedFieldD2Ev.exit, label %if.then.i

if.then.i:                                        ; preds = %if.end
  invoke void @_ZN9grpc_core16ValidationErrors8PopFieldEv(ptr noundef nonnull align 8 dereferenceable(72) %14)
          to label %_ZN9grpc_core16ValidationErrors11ScopedFieldD2Ev.exit unwind label %terminate.lpad.i

terminate.lpad.i:                                 ; preds = %if.then.i
  %15 = landingpad { ptr, i32 }
          catch ptr null
  %16 = extractvalue { ptr, i32 } %15, 0
  call void @__clang_call_terminate(ptr %16) #34
  unreachable

_ZN9grpc_core16ValidationErrors11ScopedFieldD2Ev.exit: ; preds = %if.end, %if.then.i
  ret void

eh.resume:                                        ; preds = %lpad8, %lpad
  %.pn = phi { ptr, i32 } [ %13, %lpad8 ], [ %12, %lpad ]
  resume { ptr, i32 } %.pn
}